target datalayout = "e-m:e-p270:32:32-p271:32:32-p272:64:64-i64:64-i128:128-f80:128-n8:16:32:64-S128"
target triple = "x86_64-pc-linux-gnu"

%struct.TLSX = type { i32, ptr, i32, i8, ptr }
%struct.SupportedCurve = type { i16, ptr }

; Function Attrs: nounwind uwtable
define ptr @TLSX_Find(ptr noundef %0, i32 noundef %1) #0 {
  %3 = alloca ptr, align 8
  %4 = alloca i32, align 4
  %5 = alloca ptr, align 8
  store ptr %0, ptr %3, align 8, !tbaa !77
  store i32 %1, ptr %4, align 4, !tbaa !12
  call void @llvm.lifetime.start.p0(i64 8, ptr %5) #8
  %6 = load ptr, ptr %3, align 8, !tbaa !77
  store ptr %6, ptr %5, align 8, !tbaa !77
  br label %7

7:                                                ; preds = %18, %2
  %8 = load ptr, ptr %5, align 8, !tbaa !77
  %9 = icmp ne ptr %8, null
  br i1 %9, label %10, label %16

10:                                               ; preds = %7
  %11 = load ptr, ptr %5, align 8, !tbaa !77
  %12 = getelementptr inbounds nuw %struct.TLSX, ptr %11, i32 0, i32 0
  %13 = load i32, ptr %12, align 8, !tbaa !78
  %14 = load i32, ptr %4, align 4, !tbaa !12
  %15 = icmp ne i32 %13, %14
  br label %16

16:                                               ; preds = %10, %7
  %17 = phi i1 [ false, %7 ], [ %15, %10 ]
  br i1 %17, label %18, label %22

18:                                               ; preds = %16
  %19 = load ptr, ptr %5, align 8, !tbaa !77
  %20 = getelementptr inbounds nuw %struct.TLSX, ptr %19, i32 0, i32 4
  %21 = load ptr, ptr %20, align 8, !tbaa !80
  store ptr %21, ptr %5, align 8, !tbaa !77
  br label %7, !llvm.loop !110

22:                                               ; preds = %16
  %23 = load ptr, ptr %5, align 8, !tbaa !77
  call void @llvm.lifetime.end.p0(i64 8, ptr %5) #8
  ret ptr %23
}

; Function Attrs: nounwind uwtable
define i32 @TLSX_SupportedCurve_Copy(ptr noundef %0, ptr noundef %1, ptr noundef %2) #0 {
  %4 = alloca i32, align 4
  %5 = alloca ptr, align 8
  %6 = alloca ptr, align 8
  %7 = alloca ptr, align 8
  %8 = alloca ptr, align 8
  %9 = alloca i32, align 4
  %10 = alloca ptr, align 8
  %11 = alloca i32, align 4
  store ptr %0, ptr %5, align 8, !tbaa !77
  store ptr %1, ptr %6, align 8, !tbaa !75
  store ptr %2, ptr %7, align 8, !tbaa !54
  call void @llvm.lifetime.start.p0(i64 8, ptr %8) #8
  call void @llvm.lifetime.start.p0(i64 4, ptr %9) #8
  %12 = load ptr, ptr %5, align 8, !tbaa !77
  %13 = call ptr @TLSX_Find(ptr noundef %12, i32 noundef 10)
  store ptr %13, ptr %8, align 8, !tbaa !77
  %14 = load ptr, ptr %8, align 8, !tbaa !77
  %15 = icmp ne ptr %14, null
  br i1 %15, label %16, label %42

16:                                               ; preds = %3
  call void @llvm.lifetime.start.p0(i64 8, ptr %10) #8
  %17 = load ptr, ptr %8, align 8, !tbaa !77
  %18 = getelementptr inbounds nuw %struct.TLSX, ptr %17, i32 0, i32 1
  %19 = load ptr, ptr %18, align 8, !tbaa !103
  store ptr %19, ptr %10, align 8, !tbaa !124
  br label %20

20:                                               ; preds = %34, %16
  %21 = load ptr, ptr %10, align 8, !tbaa !124
  %22 = icmp ne ptr %21, null
  br i1 %22, label %23, label %38

23:                                               ; preds = %20
  %24 = load ptr, ptr %6, align 8, !tbaa !75
  %25 = load ptr, ptr %10, align 8, !tbaa !124
  %26 = getelementptr inbounds nuw %struct.SupportedCurve, ptr %25, i32 0, i32 0
  %27 = load i16, ptr %26, align 8, !tbaa !132
  %28 = load ptr, ptr %7, align 8, !tbaa !54
  %29 = call i32 @TLSX_UseSupportedCurve(ptr noundef %24, i16 noundef zeroext %27, ptr noundef %28)
  store i32 %29, ptr %9, align 4, !tbaa !12
  %30 = load i32, ptr %9, align 4, !tbaa !12
  %31 = icmp ne i32 %30, 1
  br i1 %31, label %32, label %33

32:                                               ; preds = %23
  store i32 -125, ptr %4, align 4
  store i32 1, ptr %11, align 4
  br label %39

33:                                               ; preds = %23
  br label %34

34:                                               ; preds = %33
  %35 = load ptr, ptr %10, align 8, !tbaa !124
  %36 = getelementptr inbounds nuw %struct.SupportedCurve, ptr %35, i32 0, i32 1
  %37 = load ptr, ptr %36, align 8, !tbaa !127
  store ptr %37, ptr %10, align 8, !tbaa !124
  br label %20, !llvm.loop !157

38:                                               ; preds = %20
  store i32 0, ptr %11, align 4
  br label %39

39:                                               ; preds = %38, %32
  call void @llvm.lifetime.end.p0(i64 8, ptr %10) #8
  %40 = load i32, ptr %11, align 4
  switch i32 %40, label %43 [
    i32 0, label %41
  ]

41:                                               ; preds = %39
  br label %42

42:                                               ; preds = %41, %3
  store i32 0, ptr %4, align 4
  store i32 1, ptr %11, align 4
  br label %43

43:                                               ; preds = %42, %39
  call void @llvm.lifetime.end.p0(i64 4, ptr %9) #8
  call void @llvm.lifetime.end.p0(i64 8, ptr %8) #8
  %44 = load i32, ptr %4, align 4
  ret i32 %44
}