; Function Attrs: nounwind uwtable
define range(i32 -125, 1) i32 @TLSX_SupportedCurve_Copy(ptr noundef readonly captures(address_is_null) %0, ptr noundef captures(address_is_null) %1, ptr noundef readnone captures(none) %2) local_unnamed_addr #0 {
  %.not6.i = icmp eq ptr %0, null
  br i1 %.not6.i, label %.critedge, label %.lr.ph.i

.lr.ph.i:                                         ; preds = %3, %5
  %.07.i = phi ptr [ %7, %5 ], [ %0, %3 ]
  %4 = load i32, ptr %.07.i, align 8, !tbaa !60
  %.not5.i = icmp eq i32 %4, 10
  br i1 %.not5.i, label %TLSX_Find.exit, label %5

5:                                                ; preds = %.lr.ph.i
  %6 = getelementptr inbounds nuw i8, ptr %.07.i, i64 24
  %7 = load ptr, ptr %6, align 8, !tbaa !63
  %.not.i = icmp eq ptr %7, null
  br i1 %.not.i, label %.critedge, label %.lr.ph.i, !llvm.loop !101

TLSX_Find.exit:                                   ; preds = %.lr.ph.i, %8
  %.pn = phi ptr [ %.010, %8 ], [ %.07.i, %.lr.ph.i ]
  %.010.in = getelementptr inbounds nuw i8, ptr %.pn, i64 8
  %.010 = load ptr, ptr %.010.in, align 8, !tbaa !108
  %.not13 = icmp eq ptr %.010, null
  br i1 %.not13, label %.critedge, label %8

8:                                                ; preds = %TLSX_Find.exit
  %9 = load i16, ptr %.010, align 8, !tbaa !110
  %10 = tail call i32 @TLSX_UseSupportedCurve(ptr noundef %1, i16 noundef zeroext %9, ptr poison)
  %.not14 = icmp eq i32 %10, 1
  br i1 %.not14, label %TLSX_Find.exit, label %.critedge, !llvm.loop !137

.critedge:                                        ; preds = %5, %TLSX_Find.exit, %8, %3
  %.1 = phi i32 [ 0, %3 ], [ 0, %TLSX_Find.exit ], [ -125, %8 ], [ 0, %5 ]
  ret i32 %.1
}